; Function Attrs: mustprogress uwtable
define hidden void @_ZN4cvc58internal8decision11JustifyInfo16revertChildIndexEv(ptr noundef nonnull align 8 dereferenceable(144) %this) local_unnamed_addr #3 align 2 {
entry:
  %d_data.i.i = getelementptr inbounds i8, ptr %this, i64 136
  %0 = load i64, ptr %d_data.i.i, align 8
  %d_pScope.i.i.i = getelementptr inbounds i8, ptr %this, i64 104
  %1 = load ptr, ptr %d_pScope.i.i.i, align 8
  %2 = load ptr, ptr %1, align 8
  %_M_finish.i.i.i.i.i.i.i = getelementptr inbounds i8, ptr %2, i64 16
  %3 = load ptr, ptr %_M_finish.i.i.i.i.i.i.i, align 8
  %add.ptr.i.i.i.i.i.i.i = getelementptr inbounds i8, ptr %3, i64 -8
  %4 = load ptr, ptr %add.ptr.i.i.i.i.i.i.i, align 8
  %cmp.i.i.i.i = icmp eq ptr %4, %1
  br i1 %cmp.i.i.i.i, label %_ZN4cvc57context3CDOImEaSERKm.exit, label %if.then.i.i.i

if.then.i.i.i:                                    ; preds = %entry
  %d_childIndex = getelementptr inbounds i8, ptr %this, i64 96
  tail call void @_ZN4cvc57context10ContextObj6updateEv(ptr noundef nonnull align 8 dereferenceable(40) %d_childIndex)
  br label %_ZN4cvc57context3CDOImEaSERKm.exit

_ZN4cvc57context3CDOImEaSERKm.exit:               ; preds = %entry, %if.then.i.i.i
  %sub = add i64 %0, -1
  store i64 %sub, ptr %d_data.i.i, align 8
  ret void
}